; Function Attrs: nofree nounwind uwtable
define range(i32 0, 2) i32 @mz_zip_reader_file_stat(ptr noundef captures(address_is_null) %0, i32 noundef %1, ptr noundef captures(address_is_null) %2) local_unnamed_addr #19 {
  %.not.i = icmp eq ptr %0, null
  br i1 %.not.i, label %mz_zip_get_cdh.exit, label %4

4:                                                ; preds = %3
  %5 = getelementptr inbounds nuw i8, ptr %0, i64 104
  %6 = load ptr, ptr %5, align 8
  %.not10.i = icmp eq ptr %6, null
  br i1 %.not10.i, label %mz_zip_get_cdh.exit, label %7

7:                                                ; preds = %4
  %8 = getelementptr inbounds nuw i8, ptr %0, i64 16
  %9 = load i32, ptr %8, align 8
  %.not11.i = icmp ult i32 %1, %9
  br i1 %.not11.i, label %10, label %mz_zip_get_cdh.exit

10:                                               ; preds = %7
  %11 = load ptr, ptr %6, align 8
  %12 = getelementptr inbounds nuw i8, ptr %6, i64 32
  %13 = load ptr, ptr %12, align 8
  %14 = zext i32 %1 to i64
  %15 = getelementptr inbounds nuw i32, ptr %13, i64 %14
  %16 = load i32, ptr %15, align 4
  %17 = zext i32 %16 to i64
  %18 = getelementptr inbounds nuw i8, ptr %11, i64 %17
  br label %mz_zip_get_cdh.exit

mz_zip_get_cdh.exit:                              ; preds = %3, %4, %7, %10
  %.0.i = phi ptr [ %18, %10 ], [ null, %7 ], [ null, %4 ], [ null, %3 ]
  %19 = tail call fastcc i32 @mz_zip_file_stat_internal(ptr noundef %0, i32 noundef %1, ptr noundef %.0.i, ptr noundef %2, ptr noundef null)
  ret i32 %19
}